; ModuleID = '57/2403.c'
source_filename = "57/2403.c"
target datalayout = "e-m:e-p270:32:32-p271:32:32-p272:64:64-i64:64-f80:128-n8:16:32:64-S128"
target triple = "x86_64-pc-linux-gnu"

@.str = private unnamed_addr constant [3 x i8] c"%d\00", align 1
@.str.1 = private unnamed_addr constant [3 x i8] c"%s\00", align 1
@.str.2 = private unnamed_addr constant [4 x i8] c"%s\0A\00", align 1

; Function Attrs: noinline nounwind uwtable
define dso_local i32 @main() #0 {
  %1 = alloca i32, align 4
  %2 = alloca i32, align 4
  %3 = alloca i32, align 4
  %4 = alloca i32, align 4
  %5 = alloca i32, align 4
  %6 = alloca [50 x [33 x i8]], align 16
  %7 = alloca [50 x [33 x i8]], align 16
  store i32 0, i32* %1, align 4
  %8 = call i32 (i8*, ...) @__isoc99_scanf(i8* getelementptr inbounds ([3 x i8], [3 x i8]* @.str, i64 0, i64 0), i32* %2)
  store i32 0, i32* %3, align 4
  br label %9

9:                                                ; preds = %126, %0
  %10 = load i32, i32* %3, align 4
  %11 = load i32, i32* %2, align 4
  %12 = icmp slt i32 %10, %11
  br i1 %12, label %13, label %129

13:                                               ; preds = %9
  %14 = load i32, i32* %3, align 4
  %15 = sext i32 %14 to i64
  %16 = getelementptr inbounds [50 x [33 x i8]], [50 x [33 x i8]]* %6, i64 0, i64 %15
  %17 = getelementptr inbounds [33 x i8], [33 x i8]* %16, i64 0, i64 0
  %18 = call i32 (i8*, ...) @__isoc99_scanf(i8* getelementptr inbounds ([3 x i8], [3 x i8]* @.str.1, i64 0, i64 0), i8* %17)
  %19 = load i32, i32* %3, align 4
  %20 = sext i32 %19 to i64
  %21 = getelementptr inbounds [50 x [33 x i8]], [50 x [33 x i8]]* %6, i64 0, i64 %20
  %22 = getelementptr inbounds [33 x i8], [33 x i8]* %21, i64 0, i64 0
  %23 = call i64 @strlen(i8* %22) #3
  %24 = trunc i64 %23 to i32
  store i32 %24, i32* %4, align 4
  %25 = load i32, i32* %3, align 4
  %26 = sext i32 %25 to i64
  %27 = getelementptr inbounds [50 x [33 x i8]], [50 x [33 x i8]]* %6, i64 0, i64 %26
  %28 = load i32, i32* %4, align 4
  %29 = sub nsw i32 %28, 1
  %30 = sext i32 %29 to i64
  %31 = getelementptr inbounds [33 x i8], [33 x i8]* %27, i64 0, i64 %30
  %32 = load i8, i8* %31, align 1
  %33 = sext i8 %32 to i32
  %34 = icmp eq i32 %33, 114
  br i1 %34, label %46, label %35

35:                                               ; preds = %13
  %36 = load i32, i32* %3, align 4
  %37 = sext i32 %36 to i64
  %38 = getelementptr inbounds [50 x [33 x i8]], [50 x [33 x i8]]* %6, i64 0, i64 %37
  %39 = load i32, i32* %4, align 4
  %40 = sub nsw i32 %39, 1
  %41 = sext i32 %40 to i64
  %42 = getelementptr inbounds [33 x i8], [33 x i8]* %38, i64 0, i64 %41
  %43 = load i8, i8* %42, align 1
  %44 = sext i8 %43 to i32
  %45 = icmp eq i32 %44, 121
  br i1 %45, label %46, label %77

46:                                               ; preds = %35, %13
  store i32 0, i32* %5, align 4
  br label %47

47:                                               ; preds = %66, %46
  %48 = load i32, i32* %5, align 4
  %49 = load i32, i32* %4, align 4
  %50 = sub nsw i32 %49, 2
  %51 = icmp slt i32 %48, %50
  br i1 %51, label %52, label %69

52:                                               ; preds = %47
  %53 = load i32, i32* %3, align 4
  %54 = sext i32 %53 to i64
  %55 = getelementptr inbounds [50 x [33 x i8]], [50 x [33 x i8]]* %6, i64 0, i64 %54
  %56 = load i32, i32* %5, align 4
  %57 = sext i32 %56 to i64
  %58 = getelementptr inbounds [33 x i8], [33 x i8]* %55, i64 0, i64 %57
  %59 = load i8, i8* %58, align 1
  %60 = load i32, i32* %3, align 4
  %61 = sext i32 %60 to i64
  %62 = getelementptr inbounds [50 x [33 x i8]], [50 x [33 x i8]]* %7, i64 0, i64 %61
  %63 = load i32, i32* %5, align 4
  %64 = sext i32 %63 to i64
  %65 = getelementptr inbounds [33 x i8], [33 x i8]* %62, i64 0, i64 %64
  store i8 %59, i8* %65, align 1
  br label %66

66:                                               ; preds = %52
  %67 = load i32, i32* %5, align 4
  %68 = add nsw i32 %67, 1
  store i32 %68, i32* %5, align 4
  br label %47

69:                                               ; preds = %47
  %70 = load i32, i32* %3, align 4
  %71 = sext i32 %70 to i64
  %72 = getelementptr inbounds [50 x [33 x i8]], [50 x [33 x i8]]* %7, i64 0, i64 %71
  %73 = load i32, i32* %4, align 4
  %74 = sub nsw i32 %73, 2
  %75 = sext i32 %74 to i64
  %76 = getelementptr inbounds [33 x i8], [33 x i8]* %72, i64 0, i64 %75
  store i8 0, i8* %76, align 1
  br label %120

77:                                               ; preds = %35
  %78 = load i32, i32* %3, align 4
  %79 = sext i32 %78 to i64
  %80 = getelementptr inbounds [50 x [33 x i8]], [50 x [33 x i8]]* %6, i64 0, i64 %79
  %81 = load i32, i32* %4, align 4
  %82 = sub nsw i32 %81, 1
  %83 = sext i32 %82 to i64
  %84 = getelementptr inbounds [33 x i8], [33 x i8]* %80, i64 0, i64 %83
  %85 = load i8, i8* %84, align 1
  %86 = sext i8 %85 to i32
  %87 = icmp eq i32 %86, 103
  br i1 %87, label %88, label %119

88:                                               ; preds = %77
  store i32 0, i32* %5, align 4
  br label %89

89:                                               ; preds = %108, %88
  %90 = load i32, i32* %5, align 4
  %91 = load i32, i32* %4, align 4
  %92 = sub nsw i32 %91, 3
  %93 = icmp slt i32 %90, %92
  br i1 %93, label %94, label %111

94:                                               ; preds = %89
  %95 = load i32, i32* %3, align 4
  %96 = sext i32 %95 to i64
  %97 = getelementptr inbounds [50 x [33 x i8]], [50 x [33 x i8]]* %6, i64 0, i64 %96
  %98 = load i32, i32* %5, align 4
  %99 = sext i32 %98 to i64
  %100 = getelementptr inbounds [33 x i8], [33 x i8]* %97, i64 0, i64 %99
  %101 = load i8, i8* %100, align 1
  %102 = load i32, i32* %3, align 4
  %103 = sext i32 %102 to i64
  %104 = getelementptr inbounds [50 x [33 x i8]], [50 x [33 x i8]]* %7, i64 0, i64 %103
  %105 = load i32, i32* %5, align 4
  %106 = sext i32 %105 to i64
  %107 = getelementptr inbounds [33 x i8], [33 x i8]* %104, i64 0, i64 %106
  store i8 %101, i8* %107, align 1
  br label %108

108:                                              ; preds = %94
  %109 = load i32, i32* %5, align 4
  %110 = add nsw i32 %109, 1
  store i32 %110, i32* %5, align 4
  br label %89

111:                                              ; preds = %89
  %112 = load i32, i32* %3, align 4
  %113 = sext i32 %112 to i64
  %114 = getelementptr inbounds [50 x [33 x i8]], [50 x [33 x i8]]* %7, i64 0, i64 %113
  %115 = load i32, i32* %4, align 4
  %116 = sub nsw i32 %115, 3
  %117 = sext i32 %116 to i64
  %118 = getelementptr inbounds [33 x i8], [33 x i8]* %114, i64 0, i64 %117
  store i8 0, i8* %118, align 1
  br label %119

119:                                              ; preds = %111, %77
  br label %120

120:                                              ; preds = %119, %69
  %121 = load i32, i32* %3, align 4
  %122 = sext i32 %121 to i64
  %123 = getelementptr inbounds [50 x [33 x i8]], [50 x [33 x i8]]* %7, i64 0, i64 %122
  %124 = getelementptr inbounds [33 x i8], [33 x i8]* %123, i64 0, i64 0
  %125 = call i32 (i8*, ...) @printf(i8* getelementptr inbounds ([4 x i8], [4 x i8]* @.str.2, i64 0, i64 0), i8* %124)
  br label %126

126:                                              ; preds = %120
  %127 = load i32, i32* %3, align 4
  %128 = add nsw i32 %127, 1
  store i32 %128, i32* %3, align 4
  br label %9

129:                                              ; preds = %9
  ret i32 0
}

declare dso_local i32 @__isoc99_scanf(i8*, ...) #1

; Function Attrs: nounwind readonly
declare dso_local i64 @strlen(i8*) #2

declare dso_local i32 @printf(i8*, ...) #1


!llvm.module.flags = !{!0}
!llvm.ident = !{!1}

!0 = !{i32 1, !"wchar_size", i32 4}
!1 = !{!"clang version 10.0.0-4ubuntu1 "}
