; ModuleID = 'source-C-CXX/56/2403.c'
source_filename = "source-C-CXX/56/2403.c"
target datalayout = "e-m:e-p270:32:32-p271:32:32-p272:64:64-i64:64-f80:128-n8:16:32:64-S128"
target triple = "x86_64-pc-linux-gnu"

@.str = private unnamed_addr constant [3 x i8] c"%d\00", align 1
@.str.1 = private unnamed_addr constant [3 x i8] c"%s\00", align 1

; Function Attrs: nofree nounwind sspstrong uwtable
define dso_local i32 @main() local_unnamed_addr #0 {
  %1 = alloca i32, align 4
  %2 = alloca [50 x [33 x i8]], align 16
  %3 = alloca [50 x [33 x i8]], align 16
  %4 = bitcast i32* %1 to i8*
  call void @llvm.lifetime.start.p0i8(i64 4, i8* nonnull %4) #6
  %5 = getelementptr inbounds [50 x [33 x i8]], [50 x [33 x i8]]* %2, i64 0, i64 0, i64 0
  call void @llvm.lifetime.start.p0i8(i64 1650, i8* nonnull %5) #6
  %6 = getelementptr inbounds [50 x [33 x i8]], [50 x [33 x i8]]* %3, i64 0, i64 0, i64 0
  call void @llvm.lifetime.start.p0i8(i64 1650, i8* nonnull %6) #6
  %7 = call i32 (i8*, ...) @__isoc99_scanf(i8* getelementptr inbounds ([3 x i8], [3 x i8]* @.str, i64 0, i64 0), i32* nonnull %1)
  %8 = load i32, i32* %1, align 4, !tbaa !5
  %9 = icmp sgt i32 %8, 0
  br i1 %9, label %10, label %41

10:                                               ; preds = %0, %35
  %11 = phi i64 [ %37, %35 ], [ 0, %0 ]
  %12 = getelementptr [50 x [33 x i8]], [50 x [33 x i8]]* %3, i64 0, i64 %11, i64 0
  %13 = getelementptr [50 x [33 x i8]], [50 x [33 x i8]]* %2, i64 0, i64 %11, i64 0
  %14 = call i32 (i8*, ...) @__isoc99_scanf(i8* getelementptr inbounds ([3 x i8], [3 x i8]* @.str.1, i64 0, i64 0), i8* nonnull %13)
  %15 = call i64 @strlen(i8* noundef nonnull %13) #7
  %16 = trunc i64 %15 to i32
  %17 = shl i64 %15, 32
  %18 = add i64 %17, -4294967296
  %19 = ashr exact i64 %18, 32
  %20 = getelementptr inbounds [50 x [33 x i8]], [50 x [33 x i8]]* %2, i64 0, i64 %11, i64 %19
  %21 = load i8, i8* %20, align 1, !tbaa !9
  switch i8 %21, label %35 [
    i8 114, label %25
    i8 121, label %25
    i8 103, label %22
  ]

22:                                               ; preds = %10
  %23 = add i32 %16, -3
  %24 = icmp sgt i32 %16, 3
  br i1 %24, label %28, label %31

25:                                               ; preds = %10, %10
  %26 = add i32 %16, -2
  %27 = icmp sgt i32 %16, 2
  br i1 %27, label %28, label %31

28:                                               ; preds = %25, %22
  %29 = phi i32 [ %23, %22 ], [ %26, %25 ]
  %30 = zext i32 %29 to i64
  call void @llvm.memcpy.p0i8.p0i8.i64(i8* align 1 %12, i8* align 1 %13, i64 %30, i1 false)
  br label %31

31:                                               ; preds = %28, %22, %25
  %32 = phi i32 [ %26, %25 ], [ %23, %22 ], [ %29, %28 ]
  %33 = sext i32 %32 to i64
  %34 = getelementptr inbounds [50 x [33 x i8]], [50 x [33 x i8]]* %3, i64 0, i64 %11, i64 %33
  store i8 0, i8* %34, align 1, !tbaa !9
  br label %35

35:                                               ; preds = %31, %10
  %36 = call i32 @puts(i8* nonnull %12)
  %37 = add nuw nsw i64 %11, 1
  %38 = load i32, i32* %1, align 4, !tbaa !5
  %39 = sext i32 %38 to i64
  %40 = icmp slt i64 %37, %39
  br i1 %40, label %10, label %41, !llvm.loop !10

41:                                               ; preds = %35, %0
  call void @llvm.lifetime.end.p0i8(i64 1650, i8* nonnull %6) #6
  call void @llvm.lifetime.end.p0i8(i64 1650, i8* nonnull %5) #6
  call void @llvm.lifetime.end.p0i8(i64 4, i8* nonnull %4) #6
  ret i32 0
}

; Function Attrs: argmemonly mustprogress nofree nosync nounwind willreturn
declare void @llvm.lifetime.start.p0i8(i64 immarg, i8* nocapture) #1

; Function Attrs: nofree nounwind
declare noundef i32 @__isoc99_scanf(i8* nocapture noundef readonly, ...) local_unnamed_addr #2

; Function Attrs: argmemonly mustprogress nofree nounwind readonly willreturn
declare i64 @strlen(i8* nocapture) local_unnamed_addr #3

; Function Attrs: argmemonly mustprogress nofree nosync nounwind willreturn
declare void @llvm.lifetime.end.p0i8(i64 immarg, i8* nocapture) #1

; Function Attrs: nofree nounwind
declare noundef i32 @puts(i8* nocapture noundef readonly) local_unnamed_addr #4

; Function Attrs: argmemonly nofree nounwind willreturn
declare void @llvm.memcpy.p0i8.p0i8.i64(i8* noalias nocapture writeonly, i8* noalias nocapture readonly, i64, i1 immarg) #5


!llvm.module.flags = !{!0, !1, !2, !3}
!llvm.ident = !{!4}

!0 = !{i32 1, !"wchar_size", i32 4}
!1 = !{i32 7, !"PIC Level", i32 2}
!2 = !{i32 7, !"PIE Level", i32 2}
!3 = !{i32 7, !"uwtable", i32 1}
!4 = !{!"clang version 13.0.0"}
!5 = !{!6, !6, i64 0}
!6 = !{!"int", !7, i64 0}
!7 = !{!"omnipotent char", !8, i64 0}
!8 = !{!"Simple C/C++ TBAA"}
!9 = !{!7, !7, i64 0}
!10 = distinct !{!10, !11}
!11 = !{!"llvm.loop.mustprogress"}
